target datalayout = "e-m:e-p270:32:32-p271:32:32-p272:64:64-i64:64-i128:128-f80:128-n8:16:32:64-S128"
target triple = "x86_64-pc-linux-gnu"

%struct.FT_Module_Class_ = type { i64, i64, ptr, i64, i64, ptr, ptr, ptr, ptr }
%struct.FT_ModuleRec_ = type { ptr, ptr, ptr }

@.str.1 = private unnamed_addr constant [5 x i8] c"sfnt\00", align 1

; Function Attrs: nounwind uwtable
define internal ptr @cff_get_interface(ptr noundef %0, ptr noundef %1) #0 {
  %3 = alloca ptr, align 8
  %4 = alloca ptr, align 8
  %5 = alloca ptr, align 8
  %6 = alloca ptr, align 8
  %7 = alloca ptr, align 8
  %8 = alloca ptr, align 8
  store ptr %0, ptr %4, align 8
  store ptr %1, ptr %5, align 8
  %9 = load ptr, ptr %5, align 8
  %10 = call ptr @ft_service_list_lookup(ptr noundef @cff_services, ptr noundef %9)
  store ptr %10, ptr %8, align 8
  %11 = load ptr, ptr %8, align 8
  %12 = icmp ne ptr %11, null
  br i1 %12, label %13, label %15

13:                                               ; preds = %2
  %14 = load ptr, ptr %8, align 8
  store ptr %14, ptr %3, align 8
  br label %43

15:                                               ; preds = %2
  %16 = load ptr, ptr %4, align 8
  %17 = icmp ne ptr %16, null
  br i1 %17, label %19, label %18

18:                                               ; preds = %15
  store ptr null, ptr %3, align 8
  br label %43

19:                                               ; preds = %15
  %20 = load ptr, ptr %4, align 8
  %21 = getelementptr inbounds %struct.FT_ModuleRec_, ptr %20, i32 0, i32 1
  %22 = load ptr, ptr %21, align 8
  store ptr %22, ptr %6, align 8
  %23 = load ptr, ptr %6, align 8
  %24 = icmp ne ptr %23, null
  br i1 %24, label %26, label %25

25:                                               ; preds = %19
  store ptr null, ptr %3, align 8
  br label %43

26:                                               ; preds = %19
  %27 = load ptr, ptr %6, align 8
  %28 = call ptr @FT_Get_Module(ptr noundef %27, ptr noundef @.str.1)
  store ptr %28, ptr %7, align 8
  %29 = load ptr, ptr %7, align 8
  %30 = icmp ne ptr %29, null
  br i1 %30, label %31, label %40

31:                                               ; preds = %26
  %32 = load ptr, ptr %7, align 8
  %33 = getelementptr inbounds %struct.FT_ModuleRec_, ptr %32, i32 0, i32 0
  %34 = load ptr, ptr %33, align 8
  %35 = getelementptr inbounds %struct.FT_Module_Class_, ptr %34, i32 0, i32 8
  %36 = load ptr, ptr %35, align 8
  %37 = load ptr, ptr %7, align 8
  %38 = load ptr, ptr %5, align 8
  %39 = call ptr %36(ptr noundef %37, ptr noundef %38)
  br label %41

40:                                               ; preds = %26
  br label %41

41:                                               ; preds = %40, %31
  %42 = phi ptr [ %39, %31 ], [ null, %40 ]
  store ptr %42, ptr %3, align 8
  br label %43

43:                                               ; preds = %41, %25, %18, %13
  %44 = load ptr, ptr %3, align 8
  ret ptr %44
}