; Function Attrs: nounwind uwtable
define internal ptr @cff_get_interface(ptr noundef readonly %0, ptr noundef %1) #4 {
  %3 = tail call ptr @ft_service_list_lookup(ptr noundef nonnull @cff_services, ptr noundef %1) #20
  %.not = icmp eq ptr %3, null
  br i1 %.not, label %4, label %15

4:                                                ; preds = %2
  %.not16 = icmp eq ptr %0, null
  br i1 %.not16, label %15, label %5

5:                                                ; preds = %4
  %6 = getelementptr inbounds i8, ptr %0, i64 8
  %7 = load ptr, ptr %6, align 8
  %.not17 = icmp eq ptr %7, null
  br i1 %.not17, label %15, label %8

8:                                                ; preds = %5
  %9 = tail call ptr @FT_Get_Module(ptr noundef nonnull %7, ptr noundef nonnull @.str.1) #20
  %.not18 = icmp eq ptr %9, null
  br i1 %.not18, label %15, label %10

10:                                               ; preds = %8
  %11 = load ptr, ptr %9, align 8
  %12 = getelementptr inbounds i8, ptr %11, i64 64
  %13 = load ptr, ptr %12, align 8
  %14 = tail call ptr %13(ptr noundef nonnull %9, ptr noundef %1) #20
  br label %15

15:                                               ; preds = %10, %8, %5, %4, %2
  %.0 = phi ptr [ %3, %2 ], [ null, %4 ], [ null, %5 ], [ %14, %10 ], [ null, %8 ]
  ret ptr %.0
}